target datalayout = "e-m:e-p270:32:32-p271:32:32-p272:64:64-i64:64-i128:128-f80:128-n8:16:32:64-S128"
target triple = "x86_64-unknown-linux-gnu"

; Function Attrs: mustprogress nounwind uwtable
define hidden noundef i32 @_Z18countEmbeddedNullsPKhj(ptr noundef %StringBytes, i32 noundef %Length) #0 {
entry:
  %StringBytes.addr = alloca ptr, align 8
  %Length.addr = alloca i32, align 4
  %Result = alloca i32, align 4
  %I = alloca i32, align 4
  store ptr %StringBytes, ptr %StringBytes.addr, align 8
  store i32 %Length, ptr %Length.addr, align 4
  store i32 0, ptr %Result, align 4
  store i32 0, ptr %I, align 4
  br label %for.cond

for.cond:                                         ; preds = %for.inc, %entry
  %0 = load i32, ptr %I, align 4
  %1 = load i32, ptr %Length.addr, align 4
  %cmp = icmp ult i32 %0, %1
  br i1 %cmp, label %for.body, label %for.end

for.body:                                         ; preds = %for.cond
  %2 = load ptr, ptr %StringBytes.addr, align 8
  %incdec.ptr = getelementptr inbounds i8, ptr %2, i32 1
  store ptr %incdec.ptr, ptr %StringBytes.addr, align 8
  %3 = load i8, ptr %2, align 1
  %conv = zext i8 %3 to i32
  %cmp1 = icmp eq i32 %conv, 0
  br i1 %cmp1, label %if.then, label %if.end

if.then:                                          ; preds = %for.body
  %4 = load i32, ptr %Result, align 4
  %inc = add i32 %4, 1
  store i32 %inc, ptr %Result, align 4
  br label %if.end

if.end:                                           ; preds = %if.then, %for.body
  br label %for.inc

for.inc:                                          ; preds = %if.end
  %5 = load i32, ptr %I, align 4
  %inc2 = add i32 %5, 1
  store i32 %inc2, ptr %I, align 4
  br label %for.cond, !llvm.loop !6

for.end:                                          ; preds = %for.cond
  %6 = load i32, ptr %Result, align 4
  ret i32 %6
}

; Function Attrs: mustprogress nounwind uwtable
define hidden noundef i32 @_Z22countTrailingNullBytesPKhi(ptr noundef %StringBytes, i32 noundef %Length) #0 {
entry:
  %StringBytes.addr = alloca ptr, align 8
  %Length.addr = alloca i32, align 4
  %End = alloca ptr, align 8
  %Count = alloca i32, align 4
  store ptr %StringBytes, ptr %StringBytes.addr, align 8
  store i32 %Length, ptr %Length.addr, align 4
  %0 = load ptr, ptr %StringBytes.addr, align 8
  %1 = load i32, ptr %Length.addr, align 4
  %idx.ext = sext i32 %1 to i64
  %add.ptr = getelementptr inbounds i8, ptr %0, i64 %idx.ext
  %add.ptr1 = getelementptr inbounds i8, ptr %add.ptr, i64 -1
  store ptr %add.ptr1, ptr %End, align 8
  store i32 0, ptr %Count, align 4
  br label %while.cond

while.cond:                                       ; preds = %while.body, %entry
  %2 = load i32, ptr %Length.addr, align 4
  %cmp = icmp sgt i32 %2, 0
  br i1 %cmp, label %land.rhs, label %land.end

land.rhs:                                         ; preds = %while.cond
  %3 = load ptr, ptr %End, align 8
  %4 = load i8, ptr %3, align 1
  %conv = zext i8 %4 to i32
  %cmp2 = icmp eq i32 %conv, 0
  br label %land.end

land.end:                                         ; preds = %land.rhs, %while.cond
  %5 = phi i1 [ false, %while.cond ], [ %cmp2, %land.rhs ]
  br i1 %5, label %while.body, label %while.end

while.body:                                       ; preds = %land.end
  %6 = load i32, ptr %Length.addr, align 4
  %dec = add nsw i32 %6, -1
  store i32 %dec, ptr %Length.addr, align 4
  %7 = load ptr, ptr %End, align 8
  %incdec.ptr = getelementptr inbounds i8, ptr %7, i32 -1
  store ptr %incdec.ptr, ptr %End, align 8
  %8 = load i32, ptr %Count, align 4
  %inc = add i32 %8, 1
  store i32 %inc, ptr %Count, align 4
  br label %while.cond, !llvm.loop !4

while.end:                                        ; preds = %land.end
  %9 = load i32, ptr %Count, align 4
  ret i32 %9
}

; Function Attrs: mustprogress nounwind uwtable
define hidden noundef i32 @_Z17guessCharByteSizePKhjj(ptr noundef %StringBytes, i32 noundef %NumChars, i32 noundef %NumBytes) #0 {
entry:
  %retval = alloca i32, align 4
  %StringBytes.addr = alloca ptr, align 8
  %NumChars.addr = alloca i32, align 4
  %NumBytes.addr = alloca i32, align 4
  %TrailingNulls = alloca i32, align 4
  %Nulls = alloca i32, align 4
  store ptr %StringBytes, ptr %StringBytes.addr, align 8
  store i32 %NumChars, ptr %NumChars.addr, align 4
  store i32 %NumBytes, ptr %NumBytes.addr, align 4
  %0 = load i32, ptr %NumBytes.addr, align 4
  %rem = urem i32 %0, 2
  %cmp = icmp eq i32 %rem, 1
  br i1 %cmp, label %if.then, label %if.end

if.then:                                          ; preds = %entry
  store i32 1, ptr %retval, align 4
  br label %return

if.end:                                           ; preds = %entry
  %1 = load i32, ptr %NumBytes.addr, align 4
  %cmp1 = icmp ult i32 %1, 32
  br i1 %cmp1, label %if.then2, label %if.end9

if.then2:                                         ; preds = %if.end
  %2 = load ptr, ptr %StringBytes.addr, align 8
  %3 = load i32, ptr %NumChars.addr, align 4
  %call = call noundef i32 @_Z22countTrailingNullBytesPKhi(ptr noundef %2, i32 noundef %3)
  store i32 %call, ptr %TrailingNulls, align 4
  %4 = load i32, ptr %TrailingNulls, align 4
  %cmp3 = icmp uge i32 %4, 4
  br i1 %cmp3, label %if.then4, label %if.end5

if.then4:                                         ; preds = %if.then2
  store i32 4, ptr %retval, align 4
  br label %return

if.end5:                                          ; preds = %if.then2
  %5 = load i32, ptr %TrailingNulls, align 4
  %cmp6 = icmp uge i32 %5, 2
  br i1 %cmp6, label %if.then7, label %if.end8

if.then7:                                         ; preds = %if.end5
  store i32 2, ptr %retval, align 4
  br label %return

if.end8:                                          ; preds = %if.end5
  store i32 1, ptr %retval, align 4
  br label %return

if.end9:                                          ; preds = %if.end
  %6 = load ptr, ptr %StringBytes.addr, align 8
  %7 = load i32, ptr %NumChars.addr, align 4
  %call10 = call noundef i32 @_Z18countEmbeddedNullsPKhj(ptr noundef %6, i32 noundef %7)
  store i32 %call10, ptr %Nulls, align 4
  %8 = load i32, ptr %Nulls, align 4
  %9 = load i32, ptr %NumChars.addr, align 4
  %mul = mul i32 2, %9
  %div = udiv i32 %mul, 3
  %cmp11 = icmp uge i32 %8, %div
  br i1 %cmp11, label %if.then12, label %if.end13

if.then12:                                        ; preds = %if.end9
  store i32 4, ptr %retval, align 4
  br label %return

if.end13:                                         ; preds = %if.end9
  %10 = load i32, ptr %Nulls, align 4
  %11 = load i32, ptr %NumChars.addr, align 4
  %div14 = udiv i32 %11, 3
  %cmp15 = icmp uge i32 %10, %div14
  br i1 %cmp15, label %if.then16, label %if.end17

if.then16:                                        ; preds = %if.end13
  store i32 2, ptr %retval, align 4
  br label %return

if.end17:                                         ; preds = %if.end13
  store i32 1, ptr %retval, align 4
  br label %return

return:                                           ; preds = %if.end17, %if.then16, %if.then12, %if.end8, %if.then7, %if.then4, %if.then
  %12 = load i32, ptr %retval, align 4
  ret i32 %12
}