; Function Attrs: mustprogress nofree norecurse nosync nounwind willreturn memory(read, inaccessiblemem: none) uwtable
define hidden noundef i32 @_Z17guessCharByteSizePKhjj(ptr nocapture noundef readonly %StringBytes, i32 noundef %NumChars, i32 noundef %NumBytes) local_unnamed_addr #1 {
entry:
  %rem = and i32 %NumBytes, 1
  %cmp.not = icmp eq i32 %rem, 0
  br i1 %cmp.not, label %if.end, label %return

if.end:                                           ; preds = %entry
  %cmp1 = icmp ult i32 %NumBytes, 32
  br i1 %cmp1, label %if.then2, label %if.end9

if.then2:                                         ; preds = %if.end
  %cmp6.i = icmp sgt i32 %NumChars, 0
  br i1 %cmp6.i, label %land.rhs.preheader.i, label %return

land.rhs.preheader.i:                             ; preds = %if.then2
  %idx.ext.i = zext nneg i32 %NumChars to i64
  %add.ptr.i = getelementptr inbounds i8, ptr %StringBytes, i64 %idx.ext.i
  br label %land.rhs.i

land.rhs.i:                                       ; preds = %while.body.i, %land.rhs.preheader.i
  %End.09.pn.i = phi ptr [ %End.09.i, %while.body.i ], [ %add.ptr.i, %land.rhs.preheader.i ]
  %Count.08.i = phi i32 [ %inc.i, %while.body.i ], [ 0, %land.rhs.preheader.i ]
  %End.09.i = getelementptr inbounds i8, ptr %End.09.pn.i, i64 -1
  %0 = load i8, ptr %End.09.i, align 1
  %cmp2.i = icmp eq i8 %0, 0
  br i1 %cmp2.i, label %while.body.i, label %_Z22countTrailingNullBytesPKhi.exit

while.body.i:                                     ; preds = %land.rhs.i
  %inc.i = add nuw nsw i32 %Count.08.i, 1
  %exitcond.not.i = icmp eq i32 %inc.i, %NumChars
  br i1 %exitcond.not.i, label %_Z22countTrailingNullBytesPKhi.exit, label %land.rhs.i, !llvm.loop !4

_Z22countTrailingNullBytesPKhi.exit:              ; preds = %land.rhs.i, %while.body.i
  %Count.0.lcssa.i = phi i32 [ %NumChars, %while.body.i ], [ %Count.08.i, %land.rhs.i ]
  %Count.0.lcssa.i.fr = freeze i32 %Count.0.lcssa.i
  %cmp3 = icmp ugt i32 %Count.0.lcssa.i.fr, 3
  br i1 %cmp3, label %return, label %if.end5

if.end5:                                          ; preds = %_Z22countTrailingNullBytesPKhi.exit
  %cmp6 = icmp ugt i32 %Count.0.lcssa.i.fr, 1
  %spec.select = select i1 %cmp6, i32 2, i32 1
  br label %return

if.end9:                                          ; preds = %if.end
  %cmp3.not.i = icmp eq i32 %NumChars, 0
  br i1 %cmp3.not.i, label %_Z18countEmbeddedNullsPKhj.exit, label %for.body.i

for.body.i:                                       ; preds = %if.end9, %for.body.i
  %I.06.i = phi i32 [ %inc2.i, %for.body.i ], [ 0, %if.end9 ]
  %Result.05.i = phi i32 [ %spec.select.i, %for.body.i ], [ 0, %if.end9 ]
  %StringBytes.addr.04.i = phi ptr [ %incdec.ptr.i, %for.body.i ], [ %StringBytes, %if.end9 ]
  %incdec.ptr.i = getelementptr inbounds i8, ptr %StringBytes.addr.04.i, i64 1
  %1 = load i8, ptr %StringBytes.addr.04.i, align 1
  %cmp1.i = icmp eq i8 %1, 0
  %inc.i9 = zext i1 %cmp1.i to i32
  %spec.select.i = add i32 %Result.05.i, %inc.i9
  %inc2.i = add nuw i32 %I.06.i, 1
  %exitcond.not.i10 = icmp eq i32 %inc2.i, %NumChars
  br i1 %exitcond.not.i10, label %_Z18countEmbeddedNullsPKhj.exit, label %for.body.i, !llvm.loop !6

_Z18countEmbeddedNullsPKhj.exit:                  ; preds = %for.body.i, %if.end9
  %Result.0.lcssa.i = phi i32 [ 0, %if.end9 ], [ %spec.select.i, %for.body.i ]
  %mul = shl i32 %NumChars, 1
  %div = udiv i32 %mul, 3
  %cmp11.not = icmp ult i32 %Result.0.lcssa.i, %div
  br i1 %cmp11.not, label %if.end13, label %return

if.end13:                                         ; preds = %_Z18countEmbeddedNullsPKhj.exit
  %div14 = udiv i32 %NumChars, 3
  %cmp15.not = icmp ult i32 %Result.0.lcssa.i, %div14
  %.8 = select i1 %cmp15.not, i32 1, i32 2
  br label %return

return:                                           ; preds = %if.end5, %if.then2, %if.end13, %_Z18countEmbeddedNullsPKhj.exit, %_Z22countTrailingNullBytesPKhi.exit, %entry
  %retval.0 = phi i32 [ 1, %entry ], [ 4, %_Z22countTrailingNullBytesPKhi.exit ], [ 4, %_Z18countEmbeddedNullsPKhj.exit ], [ %.8, %if.end13 ], [ 1, %if.then2 ], [ %spec.select, %if.end5 ]
  ret i32 %retval.0
}